target datalayout = "e-m:e-p270:32:32-p271:32:32-p272:64:64-i64:64-i128:128-f80:128-n8:16:32:64-S128"
target triple = "x86_64-pc-linux-gnu"

%struct.Abc_Ntk_t_ = type { i32, i32, ptr, ptr, ptr, ptr, ptr, ptr, ptr, ptr, ptr, ptr, ptr, [11 x i32], i32, i32, i32, i32, ptr, i32, ptr, ptr, i32, i32, i32, double, i32, %struct.Vec_Int_t_, ptr, ptr, ptr, ptr, ptr, float, i32, ptr, ptr, ptr, ptr, ptr, ptr, ptr, ptr, ptr, ptr, ptr, ptr, ptr, ptr, ptr, ptr, ptr, ptr, ptr, ptr, ptr }
%struct.Vec_Int_t_ = type { i32, i32, ptr }
%struct.Abc_Des_t_ = type { ptr, ptr, ptr, ptr, ptr, ptr, ptr }
%struct.Vec_Ptr_t_ = type { i32, i32, ptr }

@stdout = external global ptr, align 8
@.str.15 = private unnamed_addr constant [67 x i8] c"Generic file reader requires a known file extension to open \22%s\22.\0A\00", align 1
@.str.16 = private unnamed_addr constant [2 x i8] c"r\00", align 1
@.str.17 = private unnamed_addr constant [30 x i8] c"Cannot open input file \22%s\22. \00", align 1
@.str.18 = private unnamed_addr constant [6 x i8] c".blif\00", align 1
@.str.19 = private unnamed_addr constant [7 x i8] c".bench\00", align 1
@.str.20 = private unnamed_addr constant [5 x i8] c".pla\00", align 1
@.str.21 = private unnamed_addr constant [5 x i8] c".baf\00", align 1
@.str.22 = private unnamed_addr constant [5 x i8] c".aig\00", align 1
@.str.23 = private unnamed_addr constant [19 x i8] c"Did you mean \22%s\22?\00", align 1
@.str.24 = private unnamed_addr constant [2 x i8] c"\0A\00", align 1
@.str.25 = private unnamed_addr constant [35 x i8] c"Reading AIG from file has failed.\0A\00", align 1
@stderr = external global ptr, align 8
@.str.26 = private unnamed_addr constant [22 x i8] c"Unknown file format.\0A\00", align 1
@.str.27 = private unnamed_addr constant [39 x i8] c"Reading network from file has failed.\0A\00", align 1

; Function Attrs: nounwind uwtable
define internal ptr @Vec_PtrEntry(ptr noundef %0, i32 noundef %1) #0 {
  %3 = alloca ptr, align 8
  %4 = alloca i32, align 4
  store ptr %0, ptr %3, align 8
  store i32 %1, ptr %4, align 4
  %5 = load ptr, ptr %3, align 8
  %6 = getelementptr inbounds %struct.Vec_Ptr_t_, ptr %5, i32 0, i32 2
  %7 = load ptr, ptr %6, align 8
  %8 = load i32, ptr %4, align 4
  %9 = sext i32 %8 to i64
  %10 = getelementptr inbounds ptr, ptr %7, i64 %9
  %11 = load ptr, ptr %10, align 8
  ret ptr %11
}

; Function Attrs: nounwind uwtable
define internal i32 @Vec_PtrSize(ptr noundef %0) #0 {
  %2 = alloca ptr, align 8
  store ptr %0, ptr %2, align 8
  %3 = load ptr, ptr %2, align 8
  %4 = getelementptr inbounds %struct.Vec_Ptr_t_, ptr %3, i32 0, i32 1
  %5 = load i32, ptr %4, align 4
  ret i32 %5
}

; Function Attrs: nounwind uwtable
define internal i32 @Abc_NtkWhiteboxNum(ptr noundef %0) #0 {
  %2 = alloca ptr, align 8
  store ptr %0, ptr %2, align 8
  %3 = load ptr, ptr %2, align 8
  %4 = getelementptr inbounds %struct.Abc_Ntk_t_, ptr %3, i32 0, i32 13
  %5 = getelementptr inbounds [11 x i32], ptr %4, i64 0, i64 9
  %6 = load i32, ptr %5, align 4
  ret i32 %6
}

; Function Attrs: nounwind uwtable
define internal i32 @Abc_NtkBlackboxNum(ptr noundef %0) #0 {
  %2 = alloca ptr, align 8
  store ptr %0, ptr %2, align 8
  %3 = load ptr, ptr %2, align 8
  %4 = getelementptr inbounds %struct.Abc_Ntk_t_, ptr %3, i32 0, i32 13
  %5 = getelementptr inbounds [11 x i32], ptr %4, i64 0, i64 10
  %6 = load i32, ptr %5, align 8
  ret i32 %6
}

; Function Attrs: nounwind uwtable
define ptr @Io_ReadNetlist(ptr noundef %0, i32 noundef %1, i32 noundef %2) #0 {
  %4 = alloca ptr, align 8
  %5 = alloca ptr, align 8
  %6 = alloca i32, align 4
  %7 = alloca i32, align 4
  %8 = alloca ptr, align 8
  %9 = alloca ptr, align 8
  %10 = alloca i32, align 4
  %11 = alloca i32, align 4
  %12 = alloca ptr, align 8
  store ptr %0, ptr %5, align 8
  store i32 %1, ptr %6, align 4
  store i32 %2, ptr %7, align 4
  %13 = load i32, ptr %6, align 4
  %14 = icmp eq i32 %13, 0
  br i1 %14, label %18, label %15

15:                                               ; preds = %3
  %16 = load i32, ptr %6, align 4
  %17 = icmp eq i32 %16, 19
  br i1 %17, label %18, label %22

18:                                               ; preds = %15, %3
  %19 = load ptr, ptr @stdout, align 8
  %20 = load ptr, ptr %5, align 8
  %21 = call i32 (ptr, ptr, ...) @fprintf(ptr noundef %19, ptr noundef @.str.15, ptr noundef %20) #9
  store ptr null, ptr %4, align 8
  br label %197

22:                                               ; preds = %15
  %23 = load ptr, ptr %5, align 8
  %24 = call noalias ptr @fopen(ptr noundef %23, ptr noundef @.str.16)
  store ptr %24, ptr %8, align 8
  %25 = load ptr, ptr %8, align 8
  %26 = icmp eq ptr %25, null
  br i1 %26, label %27, label %41

27:                                               ; preds = %22
  %28 = load ptr, ptr @stdout, align 8
  %29 = load ptr, ptr %5, align 8
  %30 = call i32 (ptr, ptr, ...) @fprintf(ptr noundef %28, ptr noundef @.str.17, ptr noundef %29) #9
  %31 = load ptr, ptr %5, align 8
  %32 = call ptr @Extra_FileGetSimilarName(ptr noundef %31, ptr noundef @.str.18, ptr noundef @.str.19, ptr noundef @.str.20, ptr noundef @.str.21, ptr noundef @.str.22)
  store ptr %32, ptr %5, align 8
  %33 = icmp ne ptr %32, null
  br i1 %33, label %34, label %38

34:                                               ; preds = %27
  %35 = load ptr, ptr @stdout, align 8
  %36 = load ptr, ptr %5, align 8
  %37 = call i32 (ptr, ptr, ...) @fprintf(ptr noundef %35, ptr noundef @.str.23, ptr noundef %36) #9
  br label %38

38:                                               ; preds = %34, %27
  %39 = load ptr, ptr @stdout, align 8
  %40 = call i32 (ptr, ptr, ...) @fprintf(ptr noundef %39, ptr noundef @.str.24) #9
  store ptr null, ptr %4, align 8
  br label %197

41:                                               ; preds = %22
  %42 = load ptr, ptr %8, align 8
  %43 = call i32 @fclose(ptr noundef %42)
  %44 = load i32, ptr %6, align 4
  %45 = icmp eq i32 %44, 1
  br i1 %45, label %52, label %46

46:                                               ; preds = %41
  %47 = load i32, ptr %6, align 4
  %48 = icmp eq i32 %47, 2
  br i1 %48, label %52, label %49

49:                                               ; preds = %46
  %50 = load i32, ptr %6, align 4
  %51 = icmp eq i32 %50, 3
  br i1 %51, label %52, label %79

52:                                               ; preds = %49, %46, %41
  %53 = load i32, ptr %6, align 4
  %54 = icmp eq i32 %53, 1
  br i1 %54, label %55, label %59

55:                                               ; preds = %52
  %56 = load ptr, ptr %5, align 8
  %57 = load i32, ptr %7, align 4
  %58 = call ptr @Io_ReadAiger(ptr noundef %56, i32 noundef %57)
  store ptr %58, ptr %9, align 8
  br label %71

59:                                               ; preds = %52
  %60 = load i32, ptr %6, align 4
  %61 = icmp eq i32 %60, 2
  br i1 %61, label %62, label %66

62:                                               ; preds = %59
  %63 = load ptr, ptr %5, align 8
  %64 = load i32, ptr %7, align 4
  %65 = call ptr @Io_ReadBaf(ptr noundef %63, i32 noundef %64)
  store ptr %65, ptr %9, align 8
  br label %70

66:                                               ; preds = %59
  %67 = load ptr, ptr %5, align 8
  %68 = load i32, ptr %7, align 4
  %69 = call ptr @Io_ReadBblif(ptr noundef %67, i32 noundef %68)
  store ptr %69, ptr %9, align 8
  br label %70

70:                                               ; preds = %66, %62
  br label %71

71:                                               ; preds = %70, %55
  %72 = load ptr, ptr %9, align 8
  %73 = icmp eq ptr %72, null
  br i1 %73, label %74, label %77

74:                                               ; preds = %71
  %75 = load ptr, ptr @stdout, align 8
  %76 = call i32 (ptr, ptr, ...) @fprintf(ptr noundef %75, ptr noundef @.str.25) #9
  store ptr null, ptr %4, align 8
  br label %197

77:                                               ; preds = %71
  %78 = load ptr, ptr %9, align 8
  store ptr %78, ptr %4, align 8
  br label %197

79:                                               ; preds = %49
  %80 = load i32, ptr %6, align 4
  %81 = icmp eq i32 %80, 4
  br i1 %81, label %82, label %86

82:                                               ; preds = %79
  %83 = load ptr, ptr %5, align 8
  %84 = load i32, ptr %7, align 4
  %85 = call ptr @Io_ReadBlifMv(ptr noundef %83, i32 noundef 0, i32 noundef %84)
  store ptr %85, ptr %9, align 8
  br label %138

86:                                               ; preds = %79
  %87 = load ptr, ptr %5, align 8
  %88 = call i32 @Io_ReadFileType(ptr noundef %87)
  %89 = icmp eq i32 %88, 5
  br i1 %89, label %90, label %94

90:                                               ; preds = %86
  %91 = load ptr, ptr %5, align 8
  %92 = load i32, ptr %7, align 4
  %93 = call ptr @Io_ReadBlifMv(ptr noundef %91, i32 noundef 1, i32 noundef %92)
  store ptr %93, ptr %9, align 8
  br label %137

94:                                               ; preds = %86
  %95 = load i32, ptr %6, align 4
  %96 = icmp eq i32 %95, 6
  br i1 %96, label %97, label %101

97:                                               ; preds = %94
  %98 = load ptr, ptr %5, align 8
  %99 = load i32, ptr %7, align 4
  %100 = call ptr @Io_ReadBench(ptr noundef %98, i32 noundef %99)
  store ptr %100, ptr %9, align 8
  br label %136

101:                                              ; preds = %94
  %102 = load i32, ptr %6, align 4
  %103 = icmp eq i32 %102, 10
  br i1 %103, label %104, label %108

104:                                              ; preds = %101
  %105 = load ptr, ptr %5, align 8
  %106 = load i32, ptr %7, align 4
  %107 = call ptr @Io_ReadEdif(ptr noundef %105, i32 noundef %106)
  store ptr %107, ptr %9, align 8
  br label %135

108:                                              ; preds = %101
  %109 = load i32, ptr %6, align 4
  %110 = icmp eq i32 %109, 11
  br i1 %110, label %111, label %115

111:                                              ; preds = %108
  %112 = load ptr, ptr %5, align 8
  %113 = load i32, ptr %7, align 4
  %114 = call ptr @Io_ReadEqn(ptr noundef %112, i32 noundef %113)
  store ptr %114, ptr %9, align 8
  br label %134

115:                                              ; preds = %108
  %116 = load i32, ptr %6, align 4
  %117 = icmp eq i32 %116, 15
  br i1 %117, label %118, label %122

118:                                              ; preds = %115
  %119 = load ptr, ptr %5, align 8
  %120 = load i32, ptr %7, align 4
  %121 = call ptr @Io_ReadPla(ptr noundef %119, i32 noundef 0, i32 noundef 0, i32 noundef 0, i32 noundef 0, i32 noundef %120)
  store ptr %121, ptr %9, align 8
  br label %133

122:                                              ; preds = %115
  %123 = load i32, ptr %6, align 4
  %124 = icmp eq i32 %123, 18
  br i1 %124, label %125, label %129

125:                                              ; preds = %122
  %126 = load ptr, ptr %5, align 8
  %127 = load i32, ptr %7, align 4
  %128 = call ptr @Io_ReadVerilog(ptr noundef %126, i32 noundef %127)
  store ptr %128, ptr %9, align 8
  br label %132

129:                                              ; preds = %122
  %130 = load ptr, ptr @stderr, align 8
  %131 = call i32 (ptr, ptr, ...) @fprintf(ptr noundef %130, ptr noundef @.str.26) #9
  store ptr null, ptr %4, align 8
  br label %197

132:                                              ; preds = %125
  br label %133

133:                                              ; preds = %132, %118
  br label %134

134:                                              ; preds = %133, %111
  br label %135

135:                                              ; preds = %134, %104
  br label %136

136:                                              ; preds = %135, %97
  br label %137

137:                                              ; preds = %136, %90
  br label %138

138:                                              ; preds = %137, %82
  %139 = load ptr, ptr %9, align 8
  %140 = icmp eq ptr %139, null
  br i1 %140, label %141, label %144

141:                                              ; preds = %138
  %142 = load ptr, ptr @stdout, align 8
  %143 = call i32 (ptr, ptr, ...) @fprintf(ptr noundef %142, ptr noundef @.str.27) #9
  store ptr null, ptr %4, align 8
  br label %197

144:                                              ; preds = %138
  %145 = load i32, ptr %7, align 4
  %146 = icmp ne i32 %145, 0
  br i1 %146, label %147, label %195

147:                                              ; preds = %144
  %148 = load ptr, ptr %9, align 8
  %149 = call i32 @Abc_NtkBlackboxNum(ptr noundef %148)
  %150 = icmp ne i32 %149, 0
  br i1 %150, label %155, label %151

151:                                              ; preds = %147
  %152 = load ptr, ptr %9, align 8
  %153 = call i32 @Abc_NtkWhiteboxNum(ptr noundef %152)
  %154 = icmp ne i32 %153, 0
  br i1 %154, label %155, label %195

155:                                              ; preds = %151, %147
  %156 = load ptr, ptr %9, align 8
  %157 = getelementptr inbounds %struct.Abc_Ntk_t_, ptr %156, i32 0, i32 20
  %158 = load ptr, ptr %157, align 8
  %159 = icmp ne ptr %158, null
  br i1 %159, label %160, label %195

160:                                              ; preds = %155
  store i32 0, ptr %11, align 4
  store i32 0, ptr %10, align 4
  br label %161

161:                                              ; preds = %186, %160
  %162 = load i32, ptr %10, align 4
  %163 = load ptr, ptr %9, align 8
  %164 = getelementptr inbounds %struct.Abc_Ntk_t_, ptr %163, i32 0, i32 20
  %165 = load ptr, ptr %164, align 8
  %166 = getelementptr inbounds %struct.Abc_Des_t_, ptr %165, i32 0, i32 3
  %167 = load ptr, ptr %166, align 8
  %168 = call i32 @Vec_PtrSize(ptr noundef %167)
  %169 = icmp slt i32 %162, %168
  br i1 %169, label %170, label %178

170:                                              ; preds = %161
  %171 = load ptr, ptr %9, align 8
  %172 = getelementptr inbounds %struct.Abc_Ntk_t_, ptr %171, i32 0, i32 20
  %173 = load ptr, ptr %172, align 8
  %174 = getelementptr inbounds %struct.Abc_Des_t_, ptr %173, i32 0, i32 3
  %175 = load ptr, ptr %174, align 8
  %176 = load i32, ptr %10, align 4
  %177 = call ptr @Vec_PtrEntry(ptr noundef %175, i32 noundef %176)
  store ptr %177, ptr %12, align 8
  br label %178

178:                                              ; preds = %170, %161
  %179 = phi i1 [ false, %161 ], [ true, %170 ]
  br i1 %179, label %180, label %189

180:                                              ; preds = %178
  %181 = load ptr, ptr %12, align 8
  %182 = call i32 @Abc_NtkIsAcyclicWithBoxes(ptr noundef %181)
  %183 = icmp ne i32 %182, 0
  br i1 %183, label %185, label %184

184:                                              ; preds = %180
  store i32 1, ptr %11, align 4
  br label %185

185:                                              ; preds = %184, %180
  br label %186

186:                                              ; preds = %185
  %187 = load i32, ptr %10, align 4
  %188 = add nsw i32 %187, 1
  store i32 %188, ptr %10, align 4
  br label %161, !llvm.loop !4

189:                                              ; preds = %178
  %190 = load i32, ptr %11, align 4
  %191 = icmp ne i32 %190, 0
  br i1 %191, label %192, label %194

192:                                              ; preds = %189
  %193 = load ptr, ptr %9, align 8
  call void @Abc_NtkDelete(ptr noundef %193)
  store ptr null, ptr %4, align 8
  br label %197

194:                                              ; preds = %189
  br label %195

195:                                              ; preds = %194, %155, %151, %144
  %196 = load ptr, ptr %9, align 8
  store ptr %196, ptr %4, align 8
  br label %197

197:                                              ; preds = %195, %192, %141, %129, %77, %74, %38, %18
  %198 = load ptr, ptr %4, align 8
  ret ptr %198
}