; Function Attrs: nounwind uwtable
define ptr @Io_ReadNetlist(ptr noundef %0, i32 noundef %1, i32 noundef %2) local_unnamed_addr #0 {
  switch i32 %1, label %7 [
    i32 19, label %4
    i32 0, label %4
  ]

4:                                                ; preds = %3, %3
  %5 = load ptr, ptr @stdout, align 8
  %6 = tail call i32 (ptr, ptr, ...) @fprintf(ptr noundef %5, ptr noundef nonnull @.str.15, ptr noundef %0) #14
  br label %.critedge.thread

7:                                                ; preds = %3
  %8 = tail call noalias ptr @fopen(ptr noundef %0, ptr noundef nonnull @.str.16)
  %9 = icmp eq ptr %8, null
  br i1 %9, label %10, label %19

10:                                               ; preds = %7
  %11 = load ptr, ptr @stdout, align 8
  %12 = tail call i32 (ptr, ptr, ...) @fprintf(ptr noundef %11, ptr noundef nonnull @.str.17, ptr noundef %0) #14
  %13 = tail call ptr @Extra_FileGetSimilarName(ptr noundef %0, ptr noundef nonnull @.str.18, ptr noundef nonnull @.str.19, ptr noundef nonnull @.str.20, ptr noundef nonnull @.str.21, ptr noundef nonnull @.str.22) #14
  %.not74 = icmp eq ptr %13, null
  br i1 %.not74, label %17, label %14

14:                                               ; preds = %10
  %15 = load ptr, ptr @stdout, align 8
  %16 = tail call i32 (ptr, ptr, ...) @fprintf(ptr noundef %15, ptr noundef nonnull @.str.23, ptr noundef nonnull %13) #14
  br label %17

17:                                               ; preds = %14, %10
  %18 = load ptr, ptr @stdout, align 8
  %fputc = tail call i32 @fputc(i32 10, ptr %18)
  br label %.critedge.thread

19:                                               ; preds = %7
  %20 = tail call i32 @fclose(ptr noundef nonnull %8)
  %21 = add i32 %1, -1
  %or.cond5 = icmp ult i32 %21, 3
  br i1 %or.cond5, label %22, label %34

22:                                               ; preds = %19
  switch i32 %1, label %27 [
    i32 1, label %23
    i32 2, label %25
  ]

23:                                               ; preds = %22
  %24 = tail call ptr @Io_ReadAiger(ptr noundef %0, i32 noundef %2) #14
  br label %29

25:                                               ; preds = %22
  %26 = tail call ptr @Io_ReadBaf(ptr noundef %0, i32 noundef %2) #14
  br label %29

27:                                               ; preds = %22
  %28 = tail call ptr @Io_ReadBblif(ptr noundef %0, i32 noundef %2) #14
  br label %29

29:                                               ; preds = %25, %27, %23
  %.064 = phi ptr [ %24, %23 ], [ %26, %25 ], [ %28, %27 ]
  %30 = icmp eq ptr %.064, null
  br i1 %30, label %31, label %.critedge.thread

31:                                               ; preds = %29
  %32 = load ptr, ptr @stdout, align 8
  %33 = tail call i64 @fwrite(ptr nonnull @.str.25, i64 34, i64 1, ptr %32)
  br label %.critedge.thread

34:                                               ; preds = %19
  %35 = icmp eq i32 %1, 4
  br i1 %35, label %36, label %38

36:                                               ; preds = %34
  %37 = tail call ptr @Io_ReadBlifMv(ptr noundef %0, i32 noundef 0, i32 noundef %2) #14
  br label %57

38:                                               ; preds = %34
  %39 = tail call i32 @Io_ReadFileType(ptr noundef %0)
  %40 = icmp eq i32 %39, 5
  br i1 %40, label %41, label %43

41:                                               ; preds = %38
  %42 = tail call ptr @Io_ReadBlifMv(ptr noundef %0, i32 noundef 1, i32 noundef %2) #14
  br label %57

43:                                               ; preds = %38
  switch i32 %1, label %54 [
    i32 6, label %44
    i32 10, label %46
    i32 11, label %48
    i32 15, label %50
    i32 18, label %52
  ]

44:                                               ; preds = %43
  %45 = tail call ptr @Io_ReadBench(ptr noundef %0, i32 noundef %2) #14
  br label %57

46:                                               ; preds = %43
  %47 = tail call ptr @Io_ReadEdif(ptr noundef %0, i32 noundef %2) #14
  br label %57

48:                                               ; preds = %43
  %49 = tail call ptr @Io_ReadEqn(ptr noundef %0, i32 noundef %2) #14
  br label %57

50:                                               ; preds = %43
  %51 = tail call ptr @Io_ReadPla(ptr noundef %0, i32 noundef 0, i32 noundef 0, i32 noundef 0, i32 noundef 0, i32 noundef %2) #14
  br label %57

52:                                               ; preds = %43
  %53 = tail call ptr @Io_ReadVerilog(ptr noundef %0, i32 noundef %2) #14
  br label %57

54:                                               ; preds = %43
  %55 = load ptr, ptr @stderr, align 8
  %56 = tail call i64 @fwrite(ptr nonnull @.str.26, i64 21, i64 1, ptr %55) #16
  br label %.critedge.thread

57:                                               ; preds = %41, %46, %50, %52, %48, %44, %36
  %.165 = phi ptr [ %37, %36 ], [ %42, %41 ], [ %45, %44 ], [ %47, %46 ], [ %49, %48 ], [ %51, %50 ], [ %53, %52 ]
  %58 = icmp eq ptr %.165, null
  br i1 %58, label %59, label %62

59:                                               ; preds = %57
  %60 = load ptr, ptr @stdout, align 8
  %61 = tail call i64 @fwrite(ptr nonnull @.str.27, i64 38, i64 1, ptr %60)
  br label %.critedge.thread

62:                                               ; preds = %57
  %.not = icmp eq i32 %2, 0
  br i1 %.not, label %.critedge.thread, label %63

63:                                               ; preds = %62
  %64 = getelementptr i8, ptr %.165, i64 136
  %.165.val = load i32, ptr %64, align 8
  %.not69 = icmp eq i32 %.165.val, 0
  br i1 %.not69, label %65, label %67

65:                                               ; preds = %63
  %66 = getelementptr i8, ptr %.165, i64 132
  %.165.val75 = load i32, ptr %66, align 4
  %.not70 = icmp eq i32 %.165.val75, 0
  br i1 %.not70, label %.critedge.thread, label %67

67:                                               ; preds = %65, %63
  %68 = getelementptr inbounds nuw i8, ptr %.165, i64 176
  %69 = load ptr, ptr %68, align 8
  %.not71 = icmp eq ptr %69, null
  br i1 %.not71, label %.critedge.thread, label %.preheader

.preheader:                                       ; preds = %67
  %70 = getelementptr inbounds nuw i8, ptr %69, i64 24
  %71 = load ptr, ptr %70, align 8
  %72 = getelementptr i8, ptr %71, i64 4
  %.val77 = load i32, ptr %72, align 4
  %73 = icmp sgt i32 %.val77, 0
  br i1 %73, label %.lr.ph, label %.critedge.thread

.lr.ph:                                           ; preds = %.preheader, %.lr.ph
  %indvars.iv = phi i64 [ %indvars.iv.next, %.lr.ph ], [ 0, %.preheader ]
  %74 = phi ptr [ %81, %.lr.ph ], [ %71, %.preheader ]
  %.06279 = phi i32 [ %spec.select, %.lr.ph ], [ 0, %.preheader ]
  %75 = getelementptr i8, ptr %74, i64 8
  %.val76 = load ptr, ptr %75, align 8
  %76 = getelementptr inbounds nuw ptr, ptr %.val76, i64 %indvars.iv
  %77 = load ptr, ptr %76, align 8
  %78 = tail call i32 @Abc_NtkIsAcyclicWithBoxes(ptr noundef %77) #14
  %.not73 = icmp eq i32 %78, 0
  %spec.select = select i1 %.not73, i32 1, i32 %.06279
  %indvars.iv.next = add nuw nsw i64 %indvars.iv, 1
  %79 = load ptr, ptr %68, align 8
  %80 = getelementptr inbounds nuw i8, ptr %79, i64 24
  %81 = load ptr, ptr %80, align 8
  %82 = getelementptr i8, ptr %81, i64 4
  %.val = load i32, ptr %82, align 4
  %83 = sext i32 %.val to i64
  %84 = icmp slt i64 %indvars.iv.next, %83
  br i1 %84, label %.lr.ph, label %.critedge, !llvm.loop !4

.critedge:                                        ; preds = %.lr.ph
  %85 = icmp eq i32 %spec.select, 0
  br i1 %85, label %.critedge.thread, label %86

86:                                               ; preds = %.critedge
  tail call void @Abc_NtkDelete(ptr noundef nonnull %.165) #14
  br label %.critedge.thread

.critedge.thread:                                 ; preds = %.preheader, %62, %65, %67, %.critedge, %29, %86, %59, %54, %31, %17, %4
  %.0 = phi ptr [ null, %4 ], [ null, %17 ], [ null, %31 ], [ null, %59 ], [ null, %86 ], [ null, %54 ], [ %.064, %29 ], [ %.165, %.critedge ], [ %.165, %67 ], [ %.165, %65 ], [ %.165, %62 ], [ %.165, %.preheader ]
  ret ptr %.0
}